; ModuleID = '40/150.c'
source_filename = "40/150.c"
target datalayout = "e-m:e-p270:32:32-p271:32:32-p272:64:64-i64:64-f80:128-n8:16:32:64-S128"
target triple = "x86_64-pc-linux-gnu"

@.str = private unnamed_addr constant [11 x i8] c"%f%f%f%f%f\00", align 1
@.str.1 = private unnamed_addr constant [14 x i8] c"Invalid input\00", align 1
@.str.2 = private unnamed_addr constant [5 x i8] c"%.4f\00", align 1

; Function Attrs: noinline nounwind uwtable
define dso_local i32 @main() #0 {
  %1 = alloca i32, align 4
  %2 = alloca float, align 4
  %3 = alloca float, align 4
  %4 = alloca float, align 4
  %5 = alloca float, align 4
  %6 = alloca float, align 4
  %7 = alloca float, align 4
  %8 = alloca float, align 4
  %9 = alloca float, align 4
  %10 = alloca float, align 4
  store i32 0, i32* %1, align 4
  %11 = call i32 (i8*, ...) @__isoc99_scanf(i8* getelementptr inbounds ([11 x i8], [11 x i8]* @.str, i64 0, i64 0), float* %2, float* %3, float* %4, float* %5, float* %6)
  %12 = load float, float* %6, align 4
  %13 = fpext float %12 to double
  %14 = fmul double 0x400921FB4D12D84A, %13
  %15 = fdiv double %14, 3.600000e+02
  %16 = fptrunc double %15 to float
  store float %16, float* %7, align 4
  %17 = load float, float* %2, align 4
  %18 = load float, float* %3, align 4
  %19 = fadd float %17, %18
  %20 = load float, float* %4, align 4
  %21 = fadd float %19, %20
  %22 = load float, float* %5, align 4
  %23 = fadd float %21, %22
  %24 = fdiv float %23, 2.000000e+00
  store float %24, float* %8, align 4
  %25 = load float, float* %8, align 4
  %26 = load float, float* %2, align 4
  %27 = fsub float %25, %26
  %28 = load float, float* %8, align 4
  %29 = load float, float* %3, align 4
  %30 = fsub float %28, %29
  %31 = fmul float %27, %30
  %32 = load float, float* %8, align 4
  %33 = load float, float* %4, align 4
  %34 = fsub float %32, %33
  %35 = fmul float %31, %34
  %36 = load float, float* %8, align 4
  %37 = load float, float* %5, align 4
  %38 = fsub float %36, %37
  %39 = fmul float %35, %38
  %40 = fpext float %39 to double
  %41 = load float, float* %2, align 4
  %42 = load float, float* %3, align 4
  %43 = fmul float %41, %42
  %44 = load float, float* %4, align 4
  %45 = fmul float %43, %44
  %46 = load float, float* %5, align 4
  %47 = fmul float %45, %46
  %48 = fpext float %47 to double
  %49 = load float, float* %7, align 4
  %50 = fpext float %49 to double
  %51 = call double @cos(double %50) #3
  %52 = fmul double %48, %51
  %53 = load float, float* %7, align 4
  %54 = fpext float %53 to double
  %55 = call double @cos(double %54) #3
  %56 = fmul double %52, %55
  %57 = fsub double %40, %56
  %58 = call double @sqrt(double %57) #3
  %59 = fptrunc double %58 to float
  store float %59, float* %9, align 4
  %60 = load float, float* %8, align 4
  %61 = load float, float* %2, align 4
  %62 = fsub float %60, %61
  %63 = load float, float* %8, align 4
  %64 = load float, float* %3, align 4
  %65 = fsub float %63, %64
  %66 = fmul float %62, %65
  %67 = load float, float* %8, align 4
  %68 = load float, float* %4, align 4
  %69 = fsub float %67, %68
  %70 = fmul float %66, %69
  %71 = load float, float* %8, align 4
  %72 = load float, float* %5, align 4
  %73 = fsub float %71, %72
  %74 = fmul float %70, %73
  %75 = fpext float %74 to double
  %76 = load float, float* %2, align 4
  %77 = load float, float* %3, align 4
  %78 = fmul float %76, %77
  %79 = load float, float* %4, align 4
  %80 = fmul float %78, %79
  %81 = load float, float* %5, align 4
  %82 = fmul float %80, %81
  %83 = fpext float %82 to double
  %84 = load float, float* %7, align 4
  %85 = fpext float %84 to double
  %86 = call double @cos(double %85) #3
  %87 = fmul double %83, %86
  %88 = load float, float* %7, align 4
  %89 = fpext float %88 to double
  %90 = call double @cos(double %89) #3
  %91 = fmul double %87, %90
  %92 = fsub double %75, %91
  %93 = fcmp olt double %92, 0.000000e+00
  br i1 %93, label %94, label %96

94:                                               ; preds = %0
  %95 = call i32 (i8*, ...) @printf(i8* getelementptr inbounds ([14 x i8], [14 x i8]* @.str.1, i64 0, i64 0))
  br label %100

96:                                               ; preds = %0
  %97 = load float, float* %9, align 4
  %98 = fpext float %97 to double
  %99 = call i32 (i8*, ...) @printf(i8* getelementptr inbounds ([5 x i8], [5 x i8]* @.str.2, i64 0, i64 0), double %98)
  br label %100

100:                                              ; preds = %96, %94
  %101 = load i32, i32* %1, align 4
  ret i32 %101
}

declare dso_local i32 @__isoc99_scanf(i8*, ...) #1

; Function Attrs: nounwind
declare dso_local double @sqrt(double) #2

; Function Attrs: nounwind
declare dso_local double @cos(double) #2

declare dso_local i32 @printf(i8*, ...) #1


!llvm.module.flags = !{!0}
!llvm.ident = !{!1}

!0 = !{i32 1, !"wchar_size", i32 4}
!1 = !{!"clang version 10.0.0-4ubuntu1 "}
